; Function Attrs: nounwind uwtable
define range(i32 -1, 1) i32 @H5Pset_file_space_page_size(i64 noundef %0, i64 noundef %1) local_unnamed_addr #0 {
  %3 = alloca i64, align 8
  store i64 %1, ptr %3, align 8
  %4 = load i8, ptr @H5_libinit_g, align 1
  %5 = trunc i8 %4 to i1
  %6 = load i8, ptr @H5_libterm_g, align 1
  %7 = trunc i8 %6 to i1
  %8 = select i1 %5, i1 true, i1 %7
  br i1 %8, label %16, label %9

9:                                                ; preds = %2
  %10 = tail call i32 @H5_init_library() #6
  %11 = icmp slt i32 %10, 0
  br i1 %11, label %12, label %16

12:                                               ; preds = %9
  %13 = load i64, ptr @H5E_FUNC_g, align 8
  %14 = load i64, ptr @H5E_CANTINIT_g, align 8
  %15 = tail call i32 (ptr, ptr, i32, i64, i64, ptr, ...) @H5E_printf_stack(ptr noundef nonnull @.str.1, ptr noundef nonnull @__func__.H5Pset_file_space_page_size, i32 noundef 1331, i64 noundef %13, i64 noundef %14, ptr noundef nonnull @.str.2) #6
  br label %.thread22

16:                                               ; preds = %9, %2
  %17 = tail call i32 @H5CX_push() #6
  %18 = icmp slt i32 %17, 0
  br i1 %18, label %19, label %23

19:                                               ; preds = %16
  %20 = load i64, ptr @H5E_FUNC_g, align 8
  %21 = load i64, ptr @H5E_CANTSET_g, align 8
  %22 = tail call i32 (ptr, ptr, i32, i64, i64, ptr, ...) @H5E_printf_stack(ptr noundef nonnull @.str.1, ptr noundef nonnull @__func__.H5Pset_file_space_page_size, i32 noundef 1331, i64 noundef %20, i64 noundef %21, ptr noundef nonnull @.str.3) #6
  br label %.thread22

23:                                               ; preds = %16
  %24 = tail call i32 @H5E_clear_stack() #6
  %25 = load i64, ptr @H5P_CLS_FILE_CREATE_ID_g, align 8
  %26 = tail call ptr @H5P_object_verify(i64 noundef %0, i64 noundef %25) #6
  %27 = icmp eq ptr %26, null
  br i1 %27, label %28, label %32

28:                                               ; preds = %23
  %29 = load i64, ptr @H5E_ID_g, align 8
  %30 = load i64, ptr @H5E_BADID_g, align 8
  %31 = tail call i32 (ptr, ptr, i32, i64, i64, ptr, ...) @H5E_printf_stack(ptr noundef nonnull @.str.1, ptr noundef nonnull @__func__.H5Pset_file_space_page_size, i32 noundef 1335, i64 noundef %29, i64 noundef %30, ptr noundef nonnull @.str.6) #6
  br label %.thread28

32:                                               ; preds = %23
  %33 = icmp ult i64 %1, 512
  br i1 %33, label %34, label %38

34:                                               ; preds = %32
  %35 = load i64, ptr @H5E_ID_g, align 8
  %36 = load i64, ptr @H5E_BADID_g, align 8
  %37 = tail call i32 (ptr, ptr, i32, i64, i64, ptr, ...) @H5E_printf_stack(ptr noundef nonnull @.str.1, ptr noundef nonnull @__func__.H5Pset_file_space_page_size, i32 noundef 1338, i64 noundef %35, i64 noundef %36, ptr noundef nonnull @.str.60) #6
  br label %.thread28

38:                                               ; preds = %32
  %39 = icmp ugt i64 %1, 1073741824
  br i1 %39, label %40, label %44

40:                                               ; preds = %38
  %41 = load i64, ptr @H5E_ID_g, align 8
  %42 = load i64, ptr @H5E_BADID_g, align 8
  %43 = tail call i32 (ptr, ptr, i32, i64, i64, ptr, ...) @H5E_printf_stack(ptr noundef nonnull @.str.1, ptr noundef nonnull @__func__.H5Pset_file_space_page_size, i32 noundef 1341, i64 noundef %41, i64 noundef %42, ptr noundef nonnull @.str.61) #6
  br label %.thread28

44:                                               ; preds = %38
  %45 = call i32 @H5P_set(ptr noundef nonnull %26, ptr noundef nonnull @.str.62, ptr noundef nonnull %3) #6
  %46 = icmp slt i32 %45, 0
  br i1 %46, label %47, label %52

47:                                               ; preds = %44
  %48 = load i64, ptr @H5E_PLIST_g, align 8
  %49 = load i64, ptr @H5E_CANTGET_g, align 8
  %50 = call i32 (ptr, ptr, i32, i64, i64, ptr, ...) @H5E_printf_stack(ptr noundef nonnull @.str.1, ptr noundef nonnull @__func__.H5Pset_file_space_page_size, i32 noundef 1345, i64 noundef %48, i64 noundef %49, ptr noundef nonnull @.str.63) #6
  br label %.thread28

.thread28:                                        ; preds = %47, %40, %34, %28
  %51 = call i32 @H5CX_pop(i1 noundef zeroext true) #6
  br label %.thread22

52:                                               ; preds = %44
  %53 = call i32 @H5CX_pop(i1 noundef zeroext true) #6
  br label %55

.thread22:                                        ; preds = %19, %12, %.thread28
  %54 = call i32 @H5E_dump_api_stack() #6
  br label %55

55:                                               ; preds = %52, %.thread22
  %.0111725 = phi i32 [ -1, %.thread22 ], [ 0, %52 ]
  ret i32 %.0111725
}